target datalayout = "e-m:e-p270:32:32-p271:32:32-p272:64:64-i64:64-i128:128-f80:128-n8:16:32:64-S128"
target triple = "x86_64-pc-linux-gnu"

%struct.DES_cblock_st = type { [8 x i8] }
%struct.DES_ks = type { [16 x [2 x i32]] }

@DES_set_key.shifts2 = internal constant [16 x i32] [i32 0, i32 0, i32 1, i32 1, i32 1, i32 1, i32 1, i32 1, i32 0, i32 1, i32 1, i32 1, i32 1, i32 1, i32 1, i32 0], align 16

; Function Attrs: nounwind uwtable
define hidden void @DES_set_key(ptr noundef %0, ptr noundef %1) #0 {
  %3 = alloca ptr, align 8
  %4 = alloca ptr, align 8
  %5 = alloca i32, align 4
  %6 = alloca i32, align 4
  %7 = alloca i32, align 4
  %8 = alloca i32, align 4
  %9 = alloca i32, align 4
  %10 = alloca ptr, align 8
  %11 = alloca i32, align 4
  store ptr %0, ptr %3, align 8, !tbaa !6
  store ptr %1, ptr %4, align 8, !tbaa !11
  call void @llvm.lifetime.start.p0(i64 4, ptr %5) #2
  call void @llvm.lifetime.start.p0(i64 4, ptr %6) #2
  call void @llvm.lifetime.start.p0(i64 4, ptr %7) #2
  call void @llvm.lifetime.start.p0(i64 4, ptr %8) #2
  call void @llvm.lifetime.start.p0(i64 4, ptr %9) #2
  call void @llvm.lifetime.start.p0(i64 8, ptr %10) #2
  call void @llvm.lifetime.start.p0(i64 4, ptr %11) #2
  %12 = load ptr, ptr %3, align 8, !tbaa !6
  %13 = getelementptr inbounds nuw %struct.DES_cblock_st, ptr %12, i32 0, i32 0
  %14 = getelementptr inbounds [8 x i8], ptr %13, i64 0, i64 0
  store ptr %14, ptr %10, align 8, !tbaa !13
  %15 = load ptr, ptr %10, align 8, !tbaa !13
  %16 = getelementptr inbounds nuw i8, ptr %15, i32 1
  store ptr %16, ptr %10, align 8, !tbaa !13
  %17 = load i8, ptr %15, align 1, !tbaa !15
  %18 = zext i8 %17 to i32
  store i32 %18, ptr %5, align 4, !tbaa !16
  %19 = load ptr, ptr %10, align 8, !tbaa !13
  %20 = getelementptr inbounds nuw i8, ptr %19, i32 1
  store ptr %20, ptr %10, align 8, !tbaa !13
  %21 = load i8, ptr %19, align 1, !tbaa !15
  %22 = zext i8 %21 to i32
  %23 = shl i32 %22, 8
  %24 = load i32, ptr %5, align 4, !tbaa !16
  %25 = or i32 %24, %23
  store i32 %25, ptr %5, align 4, !tbaa !16
  %26 = load ptr, ptr %10, align 8, !tbaa !13
  %27 = getelementptr inbounds nuw i8, ptr %26, i32 1
  store ptr %27, ptr %10, align 8, !tbaa !13
  %28 = load i8, ptr %26, align 1, !tbaa !15
  %29 = zext i8 %28 to i32
  %30 = shl i32 %29, 16
  %31 = load i32, ptr %5, align 4, !tbaa !16
  %32 = or i32 %31, %30
  store i32 %32, ptr %5, align 4, !tbaa !16
  %33 = load ptr, ptr %10, align 8, !tbaa !13
  %34 = getelementptr inbounds nuw i8, ptr %33, i32 1
  store ptr %34, ptr %10, align 8, !tbaa !13
  %35 = load i8, ptr %33, align 1, !tbaa !15
  %36 = zext i8 %35 to i32
  %37 = shl i32 %36, 24
  %38 = load i32, ptr %5, align 4, !tbaa !16
  %39 = or i32 %38, %37
  store i32 %39, ptr %5, align 4, !tbaa !16
  %40 = load ptr, ptr %10, align 8, !tbaa !13
  %41 = getelementptr inbounds nuw i8, ptr %40, i32 1
  store ptr %41, ptr %10, align 8, !tbaa !13
  %42 = load i8, ptr %40, align 1, !tbaa !15
  %43 = zext i8 %42 to i32
  store i32 %43, ptr %6, align 4, !tbaa !16
  %44 = load ptr, ptr %10, align 8, !tbaa !13
  %45 = getelementptr inbounds nuw i8, ptr %44, i32 1
  store ptr %45, ptr %10, align 8, !tbaa !13
  %46 = load i8, ptr %44, align 1, !tbaa !15
  %47 = zext i8 %46 to i32
  %48 = shl i32 %47, 8
  %49 = load i32, ptr %6, align 4, !tbaa !16
  %50 = or i32 %49, %48
  store i32 %50, ptr %6, align 4, !tbaa !16
  %51 = load ptr, ptr %10, align 8, !tbaa !13
  %52 = getelementptr inbounds nuw i8, ptr %51, i32 1
  store ptr %52, ptr %10, align 8, !tbaa !13
  %53 = load i8, ptr %51, align 1, !tbaa !15
  %54 = zext i8 %53 to i32
  %55 = shl i32 %54, 16
  %56 = load i32, ptr %6, align 4, !tbaa !16
  %57 = or i32 %56, %55
  store i32 %57, ptr %6, align 4, !tbaa !16
  %58 = load ptr, ptr %10, align 8, !tbaa !13
  %59 = getelementptr inbounds nuw i8, ptr %58, i32 1
  store ptr %59, ptr %10, align 8, !tbaa !13
  %60 = load i8, ptr %58, align 1, !tbaa !15
  %61 = zext i8 %60 to i32
  %62 = shl i32 %61, 24
  %63 = load i32, ptr %6, align 4, !tbaa !16
  %64 = or i32 %63, %62
  store i32 %64, ptr %6, align 4, !tbaa !16
  %65 = load i32, ptr %6, align 4, !tbaa !16
  %66 = lshr i32 %65, 4
  %67 = load i32, ptr %5, align 4, !tbaa !16
  %68 = xor i32 %66, %67
  %69 = zext i32 %68 to i64
  %70 = and i64 %69, 252645135
  %71 = trunc i64 %70 to i32
  store i32 %71, ptr %7, align 4, !tbaa !16
  %72 = load i32, ptr %7, align 4, !tbaa !16
  %73 = load i32, ptr %5, align 4, !tbaa !16
  %74 = xor i32 %73, %72
  store i32 %74, ptr %5, align 4, !tbaa !16
  %75 = load i32, ptr %7, align 4, !tbaa !16
  %76 = shl i32 %75, 4
  %77 = load i32, ptr %6, align 4, !tbaa !16
  %78 = xor i32 %77, %76
  store i32 %78, ptr %6, align 4, !tbaa !16
  %79 = load i32, ptr %5, align 4, !tbaa !16
  %80 = shl i32 %79, 18
  %81 = load i32, ptr %5, align 4, !tbaa !16
  %82 = xor i32 %80, %81
  %83 = zext i32 %82 to i64
  %84 = and i64 %83, 3435921408
  %85 = trunc i64 %84 to i32
  store i32 %85, ptr %7, align 4, !tbaa !16
  %86 = load i32, ptr %5, align 4, !tbaa !16
  %87 = load i32, ptr %7, align 4, !tbaa !16
  %88 = xor i32 %86, %87
  %89 = load i32, ptr %7, align 4, !tbaa !16
  %90 = lshr i32 %89, 18
  %91 = xor i32 %88, %90
  store i32 %91, ptr %5, align 4, !tbaa !16
  %92 = load i32, ptr %6, align 4, !tbaa !16
  %93 = shl i32 %92, 18
  %94 = load i32, ptr %6, align 4, !tbaa !16
  %95 = xor i32 %93, %94
  %96 = zext i32 %95 to i64
  %97 = and i64 %96, 3435921408
  %98 = trunc i64 %97 to i32
  store i32 %98, ptr %7, align 4, !tbaa !16
  %99 = load i32, ptr %6, align 4, !tbaa !16
  %100 = load i32, ptr %7, align 4, !tbaa !16
  %101 = xor i32 %99, %100
  %102 = load i32, ptr %7, align 4, !tbaa !16
  %103 = lshr i32 %102, 18
  %104 = xor i32 %101, %103
  store i32 %104, ptr %6, align 4, !tbaa !16
  %105 = load i32, ptr %6, align 4, !tbaa !16
  %106 = lshr i32 %105, 1
  %107 = load i32, ptr %5, align 4, !tbaa !16
  %108 = xor i32 %106, %107
  %109 = zext i32 %108 to i64
  %110 = and i64 %109, 1431655765
  %111 = trunc i64 %110 to i32
  store i32 %111, ptr %7, align 4, !tbaa !16
  %112 = load i32, ptr %7, align 4, !tbaa !16
  %113 = load i32, ptr %5, align 4, !tbaa !16
  %114 = xor i32 %113, %112
  store i32 %114, ptr %5, align 4, !tbaa !16
  %115 = load i32, ptr %7, align 4, !tbaa !16
  %116 = shl i32 %115, 1
  %117 = load i32, ptr %6, align 4, !tbaa !16
  %118 = xor i32 %117, %116
  store i32 %118, ptr %6, align 4, !tbaa !16
  %119 = load i32, ptr %5, align 4, !tbaa !16
  %120 = lshr i32 %119, 8
  %121 = load i32, ptr %6, align 4, !tbaa !16
  %122 = xor i32 %120, %121
  %123 = zext i32 %122 to i64
  %124 = and i64 %123, 16711935
  %125 = trunc i64 %124 to i32
  store i32 %125, ptr %7, align 4, !tbaa !16
  %126 = load i32, ptr %7, align 4, !tbaa !16
  %127 = load i32, ptr %6, align 4, !tbaa !16
  %128 = xor i32 %127, %126
  store i32 %128, ptr %6, align 4, !tbaa !16
  %129 = load i32, ptr %7, align 4, !tbaa !16
  %130 = shl i32 %129, 8
  %131 = load i32, ptr %5, align 4, !tbaa !16
  %132 = xor i32 %131, %130
  store i32 %132, ptr %5, align 4, !tbaa !16
  %133 = load i32, ptr %6, align 4, !tbaa !16
  %134 = lshr i32 %133, 1
  %135 = load i32, ptr %5, align 4, !tbaa !16
  %136 = xor i32 %134, %135
  %137 = zext i32 %136 to i64
  %138 = and i64 %137, 1431655765
  %139 = trunc i64 %138 to i32
  store i32 %139, ptr %7, align 4, !tbaa !16
  %140 = load i32, ptr %7, align 4, !tbaa !16
  %141 = load i32, ptr %5, align 4, !tbaa !16
  %142 = xor i32 %141, %140
  store i32 %142, ptr %5, align 4, !tbaa !16
  %143 = load i32, ptr %7, align 4, !tbaa !16
  %144 = shl i32 %143, 1
  %145 = load i32, ptr %6, align 4, !tbaa !16
  %146 = xor i32 %145, %144
  store i32 %146, ptr %6, align 4, !tbaa !16
  %147 = load i32, ptr %6, align 4, !tbaa !16
  %148 = zext i32 %147 to i64
  %149 = and i64 %148, 255
  %150 = shl i64 %149, 16
  %151 = load i32, ptr %6, align 4, !tbaa !16
  %152 = zext i32 %151 to i64
  %153 = and i64 %152, 65280
  %154 = or i64 %150, %153
  %155 = load i32, ptr %6, align 4, !tbaa !16
  %156 = zext i32 %155 to i64
  %157 = and i64 %156, 16711680
  %158 = ashr i64 %157, 16
  %159 = or i64 %154, %158
  %160 = load i32, ptr %5, align 4, !tbaa !16
  %161 = zext i32 %160 to i64
  %162 = and i64 %161, 4026531840
  %163 = ashr i64 %162, 4
  %164 = or i64 %159, %163
  %165 = trunc i64 %164 to i32
  store i32 %165, ptr %6, align 4, !tbaa !16
  %166 = load i32, ptr %5, align 4, !tbaa !16
  %167 = zext i32 %166 to i64
  %168 = and i64 %167, 268435455
  %169 = trunc i64 %168 to i32
  store i32 %169, ptr %5, align 4, !tbaa !16
  store i32 0, ptr %11, align 4, !tbaa !16
  br label %170

170:                                              ; preds = %331, %2
  %171 = load i32, ptr %11, align 4, !tbaa !16
  %172 = icmp slt i32 %171, 16
  br i1 %172, label %173, label %334

173:                                              ; preds = %170
  %174 = load i32, ptr %11, align 4, !tbaa !16
  %175 = sext i32 %174 to i64
  %176 = getelementptr inbounds [16 x i32], ptr @DES_set_key.shifts2, i64 0, i64 %175
  %177 = load i32, ptr %176, align 4, !tbaa !16
  %178 = icmp ne i32 %177, 0
  br i1 %178, label %179, label %190

179:                                              ; preds = %173
  %180 = load i32, ptr %5, align 4, !tbaa !16
  %181 = lshr i32 %180, 2
  %182 = load i32, ptr %5, align 4, !tbaa !16
  %183 = shl i32 %182, 26
  %184 = or i32 %181, %183
  store i32 %184, ptr %5, align 4, !tbaa !16
  %185 = load i32, ptr %6, align 4, !tbaa !16
  %186 = lshr i32 %185, 2
  %187 = load i32, ptr %6, align 4, !tbaa !16
  %188 = shl i32 %187, 26
  %189 = or i32 %186, %188
  store i32 %189, ptr %6, align 4, !tbaa !16
  br label %201

190:                                              ; preds = %173
  %191 = load i32, ptr %5, align 4, !tbaa !16
  %192 = lshr i32 %191, 1
  %193 = load i32, ptr %5, align 4, !tbaa !16
  %194 = shl i32 %193, 27
  %195 = or i32 %192, %194
  store i32 %195, ptr %5, align 4, !tbaa !16
  %196 = load i32, ptr %6, align 4, !tbaa !16
  %197 = lshr i32 %196, 1
  %198 = load i32, ptr %6, align 4, !tbaa !16
  %199 = shl i32 %198, 27
  %200 = or i32 %197, %199
  store i32 %200, ptr %6, align 4, !tbaa !16
  br label %201

201:                                              ; preds = %190, %179
  %202 = load i32, ptr %5, align 4, !tbaa !16
  %203 = zext i32 %202 to i64
  %204 = and i64 %203, 268435455
  %205 = trunc i64 %204 to i32
  store i32 %205, ptr %5, align 4, !tbaa !16
  %206 = load i32, ptr %6, align 4, !tbaa !16
  %207 = zext i32 %206 to i64
  %208 = and i64 %207, 268435455
  %209 = trunc i64 %208 to i32
  store i32 %209, ptr %6, align 4, !tbaa !16
  %210 = load i32, ptr %5, align 4, !tbaa !16
  %211 = and i32 %210, 63
  %212 = zext i32 %211 to i64
  %213 = getelementptr inbounds nuw [64 x i32], ptr @des_skb, i64 0, i64 %212
  %214 = load i32, ptr %213, align 4, !tbaa !16
  %215 = load i32, ptr %5, align 4, !tbaa !16
  %216 = lshr i32 %215, 6
  %217 = and i32 %216, 3
  %218 = load i32, ptr %5, align 4, !tbaa !16
  %219 = lshr i32 %218, 7
  %220 = and i32 %219, 60
  %221 = or i32 %217, %220
  %222 = zext i32 %221 to i64
  %223 = getelementptr inbounds nuw [64 x i32], ptr getelementptr inbounds ([8 x [64 x i32]], ptr @des_skb, i64 0, i64 1), i64 0, i64 %222
  %224 = load i32, ptr %223, align 4, !tbaa !16
  %225 = or i32 %214, %224
  %226 = load i32, ptr %5, align 4, !tbaa !16
  %227 = lshr i32 %226, 13
  %228 = and i32 %227, 15
  %229 = load i32, ptr %5, align 4, !tbaa !16
  %230 = lshr i32 %229, 14
  %231 = and i32 %230, 48
  %232 = or i32 %228, %231
  %233 = zext i32 %232 to i64
  %234 = getelementptr inbounds nuw [64 x i32], ptr getelementptr inbounds ([8 x [64 x i32]], ptr @des_skb, i64 0, i64 2), i64 0, i64 %233
  %235 = load i32, ptr %234, align 4, !tbaa !16
  %236 = or i32 %225, %235
  %237 = load i32, ptr %5, align 4, !tbaa !16
  %238 = lshr i32 %237, 20
  %239 = and i32 %238, 1
  %240 = load i32, ptr %5, align 4, !tbaa !16
  %241 = lshr i32 %240, 21
  %242 = and i32 %241, 6
  %243 = or i32 %239, %242
  %244 = load i32, ptr %5, align 4, !tbaa !16
  %245 = lshr i32 %244, 22
  %246 = and i32 %245, 56
  %247 = or i32 %243, %246
  %248 = zext i32 %247 to i64
  %249 = getelementptr inbounds nuw [64 x i32], ptr getelementptr inbounds ([8 x [64 x i32]], ptr @des_skb, i64 0, i64 3), i64 0, i64 %248
  %250 = load i32, ptr %249, align 4, !tbaa !16
  %251 = or i32 %236, %250
  store i32 %251, ptr %8, align 4, !tbaa !16
  %252 = load i32, ptr %6, align 4, !tbaa !16
  %253 = and i32 %252, 63
  %254 = zext i32 %253 to i64
  %255 = getelementptr inbounds nuw [64 x i32], ptr getelementptr inbounds ([8 x [64 x i32]], ptr @des_skb, i64 0, i64 4), i64 0, i64 %254
  %256 = load i32, ptr %255, align 4, !tbaa !16
  %257 = load i32, ptr %6, align 4, !tbaa !16
  %258 = lshr i32 %257, 7
  %259 = and i32 %258, 3
  %260 = load i32, ptr %6, align 4, !tbaa !16
  %261 = lshr i32 %260, 8
  %262 = and i32 %261, 60
  %263 = or i32 %259, %262
  %264 = zext i32 %263 to i64
  %265 = getelementptr inbounds nuw [64 x i32], ptr getelementptr inbounds ([8 x [64 x i32]], ptr @des_skb, i64 0, i64 5), i64 0, i64 %264
  %266 = load i32, ptr %265, align 4, !tbaa !16
  %267 = or i32 %256, %266
  %268 = load i32, ptr %6, align 4, !tbaa !16
  %269 = lshr i32 %268, 15
  %270 = and i32 %269, 63
  %271 = zext i32 %270 to i64
  %272 = getelementptr inbounds nuw [64 x i32], ptr getelementptr inbounds ([8 x [64 x i32]], ptr @des_skb, i64 0, i64 6), i64 0, i64 %271
  %273 = load i32, ptr %272, align 4, !tbaa !16
  %274 = or i32 %267, %273
  %275 = load i32, ptr %6, align 4, !tbaa !16
  %276 = lshr i32 %275, 21
  %277 = and i32 %276, 15
  %278 = load i32, ptr %6, align 4, !tbaa !16
  %279 = lshr i32 %278, 22
  %280 = and i32 %279, 48
  %281 = or i32 %277, %280
  %282 = zext i32 %281 to i64
  %283 = getelementptr inbounds nuw [64 x i32], ptr getelementptr inbounds ([8 x [64 x i32]], ptr @des_skb, i64 0, i64 7), i64 0, i64 %282
  %284 = load i32, ptr %283, align 4, !tbaa !16
  %285 = or i32 %274, %284
  store i32 %285, ptr %7, align 4, !tbaa !16
  %286 = load i32, ptr %7, align 4, !tbaa !16
  %287 = shl i32 %286, 16
  %288 = zext i32 %287 to i64
  %289 = load i32, ptr %8, align 4, !tbaa !16
  %290 = zext i32 %289 to i64
  %291 = and i64 %290, 65535
  %292 = or i64 %288, %291
  %293 = and i64 %292, 4294967295
  %294 = trunc i64 %293 to i32
  store i32 %294, ptr %9, align 4, !tbaa !16
  %295 = load i32, ptr %9, align 4, !tbaa !16
  %296 = lshr i32 %295, 30
  %297 = load i32, ptr %9, align 4, !tbaa !16
  %298 = shl i32 %297, 2
  %299 = add i32 %296, %298
  %300 = zext i32 %299 to i64
  %301 = and i64 %300, 4294967295
  %302 = trunc i64 %301 to i32
  %303 = load ptr, ptr %4, align 8, !tbaa !11
  %304 = getelementptr inbounds nuw %struct.DES_ks, ptr %303, i32 0, i32 0
  %305 = load i32, ptr %11, align 4, !tbaa !16
  %306 = sext i32 %305 to i64
  %307 = getelementptr inbounds [16 x [2 x i32]], ptr %304, i64 0, i64 %306
  %308 = getelementptr inbounds [2 x i32], ptr %307, i64 0, i64 0
  store i32 %302, ptr %308, align 4, !tbaa !16
  %309 = load i32, ptr %8, align 4, !tbaa !16
  %310 = lshr i32 %309, 16
  %311 = zext i32 %310 to i64
  %312 = load i32, ptr %7, align 4, !tbaa !16
  %313 = zext i32 %312 to i64
  %314 = and i64 %313, 4294901760
  %315 = or i64 %311, %314
  %316 = trunc i64 %315 to i32
  store i32 %316, ptr %9, align 4, !tbaa !16
  %317 = load i32, ptr %9, align 4, !tbaa !16
  %318 = lshr i32 %317, 26
  %319 = load i32, ptr %9, align 4, !tbaa !16
  %320 = shl i32 %319, 6
  %321 = add i32 %318, %320
  %322 = zext i32 %321 to i64
  %323 = and i64 %322, 4294967295
  %324 = trunc i64 %323 to i32
  %325 = load ptr, ptr %4, align 8, !tbaa !11
  %326 = getelementptr inbounds nuw %struct.DES_ks, ptr %325, i32 0, i32 0
  %327 = load i32, ptr %11, align 4, !tbaa !16
  %328 = sext i32 %327 to i64
  %329 = getelementptr inbounds [16 x [2 x i32]], ptr %326, i64 0, i64 %328
  %330 = getelementptr inbounds [2 x i32], ptr %329, i64 0, i64 1
  store i32 %324, ptr %330, align 4, !tbaa !16
  br label %331

331:                                              ; preds = %201
  %332 = load i32, ptr %11, align 4, !tbaa !16
  %333 = add nsw i32 %332, 1
  store i32 %333, ptr %11, align 4, !tbaa !16
  br label %170, !llvm.loop !18

334:                                              ; preds = %170
  call void @llvm.lifetime.end.p0(i64 4, ptr %11) #2
  call void @llvm.lifetime.end.p0(i64 8, ptr %10) #2
  call void @llvm.lifetime.end.p0(i64 4, ptr %9) #2
  call void @llvm.lifetime.end.p0(i64 4, ptr %8) #2
  call void @llvm.lifetime.end.p0(i64 4, ptr %7) #2
  call void @llvm.lifetime.end.p0(i64 4, ptr %6) #2
  call void @llvm.lifetime.end.p0(i64 4, ptr %5) #2
  ret void
}