; Function Attrs: nofree norecurse nosync nounwind memory(argmem: readwrite) uwtable
define hidden void @DES_set_key(ptr noundef readonly captures(none) %0, ptr noundef writeonly captures(none) %1) local_unnamed_addr #0 {
  %3 = load i16, ptr %0, align 1
  %4 = zext i16 %3 to i32
  %5 = getelementptr inbounds nuw i8, ptr %0, i64 2
  %6 = getelementptr inbounds nuw i8, ptr %0, i64 3
  %7 = load i8, ptr %5, align 1, !tbaa !6
  %8 = zext i8 %7 to i32
  %9 = shl nuw nsw i32 %8, 16
  %10 = or disjoint i32 %9, %4
  %11 = getelementptr inbounds nuw i8, ptr %0, i64 4
  %12 = load i8, ptr %6, align 1, !tbaa !6
  %13 = zext i8 %12 to i32
  %14 = shl nuw i32 %13, 24
  %15 = or disjoint i32 %10, %14
  %16 = load i16, ptr %11, align 1
  %17 = zext i16 %16 to i32
  %18 = getelementptr inbounds nuw i8, ptr %0, i64 6
  %19 = getelementptr inbounds nuw i8, ptr %0, i64 7
  %20 = load i8, ptr %18, align 1, !tbaa !6
  %21 = zext i8 %20 to i32
  %22 = shl nuw nsw i32 %21, 16
  %23 = or disjoint i32 %22, %17
  %24 = load i8, ptr %19, align 1, !tbaa !6
  %25 = zext i8 %24 to i32
  %26 = shl nuw i32 %25, 24
  %27 = or disjoint i32 %23, %26
  %28 = lshr i32 %27, 4
  %29 = xor i32 %28, %15
  %30 = and i32 %29, 252645135
  %31 = xor i32 %30, %15
  %32 = shl nuw i32 %30, 4
  %33 = xor i32 %32, %27
  %34 = shl i32 %31, 18
  %35 = xor i32 %34, %31
  %36 = and i32 %35, -859045888
  %37 = lshr exact i32 %36, 18
  %38 = or disjoint i32 %37, %36
  %39 = xor i32 %38, %31
  %40 = shl i32 %33, 18
  %41 = xor i32 %40, %33
  %42 = and i32 %41, -859045888
  %43 = lshr exact i32 %42, 18
  %44 = or disjoint i32 %43, %42
  %45 = xor i32 %44, %33
  %46 = lshr i32 %45, 1
  %47 = xor i32 %46, %39
  %48 = and i32 %47, 1431655765
  %49 = xor i32 %48, %39
  %50 = shl nuw i32 %48, 1
  %51 = xor i32 %50, %45
  %52 = lshr i32 %49, 8
  %53 = xor i32 %52, %51
  %54 = and i32 %53, 16711935
  %55 = xor i32 %54, %51
  %56 = shl nuw i32 %54, 8
  %57 = xor i32 %56, %49
  %58 = lshr i32 %55, 1
  %59 = xor i32 %58, %57
  %60 = and i32 %59, 1431655765
  %61 = xor i32 %60, %57
  %62 = shl nuw i32 %60, 1
  %63 = xor i32 %62, %55
  %64 = shl i32 %63, 16
  %65 = and i32 %64, 16711680
  %66 = and i32 %63, 65280
  %67 = lshr i32 %63, 16
  %68 = and i32 %67, 255
  %69 = lshr i32 %61, 4
  %70 = and i32 %69, 251658240
  %71 = or disjoint i32 %70, %66
  %72 = or disjoint i32 %71, %65
  %73 = or disjoint i32 %72, %68
  br label %74

74:                                               ; preds = %2, %74
  %indvars.iv = phi i64 [ 0, %2 ], [ %indvars.iv.next, %74 ]
  %.092.in97 = phi i32 [ %61, %2 ], [ %79, %74 ]
  %.09396 = phi i32 [ %73, %2 ], [ %83, %74 ]
  %.09299 = and i32 %.092.in97, 268435455
  %75 = shl nuw nsw i64 1, %indvars.iv
  %76 = and i64 %75, 33027
  %.not.not = icmp eq i64 %76, 0
  %. = select i1 %.not.not, i32 2, i32 1
  %.107 = select i1 %.not.not, i32 26, i32 27
  %77 = lshr i32 %.09299, %.
  %78 = shl i32 %.092.in97, %.107
  %79 = or disjoint i32 %77, %78
  %80 = lshr i32 %.09396, %.
  %81 = shl i32 %.09396, %.107
  %82 = or i32 %80, %81
  %83 = and i32 %82, 268435455
  %84 = and i32 %77, 63
  %85 = zext nneg i32 %84 to i64
  %86 = getelementptr inbounds nuw [64 x i32], ptr @des_skb, i64 0, i64 %85
  %87 = load i32, ptr %86, align 4, !tbaa !9
  %88 = lshr i32 %77, 6
  %89 = and i32 %88, 3
  %90 = lshr i32 %77, 7
  %91 = and i32 %90, 60
  %92 = or disjoint i32 %89, %91
  %93 = zext nneg i32 %92 to i64
  %94 = getelementptr inbounds nuw [64 x i32], ptr getelementptr inbounds nuw (i8, ptr @des_skb, i64 256), i64 0, i64 %93
  %95 = load i32, ptr %94, align 4, !tbaa !9
  %96 = or i32 %95, %87
  %97 = lshr i32 %77, 13
  %98 = and i32 %97, 15
  %99 = lshr i32 %77, 14
  %100 = and i32 %99, 48
  %101 = or disjoint i32 %98, %100
  %102 = zext nneg i32 %101 to i64
  %103 = getelementptr inbounds nuw [64 x i32], ptr getelementptr inbounds nuw (i8, ptr @des_skb, i64 512), i64 0, i64 %102
  %104 = load i32, ptr %103, align 4, !tbaa !9
  %105 = or i32 %96, %104
  %106 = lshr i32 %77, 20
  %107 = and i32 %106, 1
  %108 = lshr i32 %77, 21
  %109 = and i32 %108, 6
  %110 = or disjoint i32 %107, %109
  %111 = lshr i32 %79, 22
  %112 = and i32 %111, 56
  %113 = or disjoint i32 %110, %112
  %114 = zext nneg i32 %113 to i64
  %115 = getelementptr inbounds nuw [64 x i32], ptr getelementptr inbounds nuw (i8, ptr @des_skb, i64 768), i64 0, i64 %114
  %116 = load i32, ptr %115, align 4, !tbaa !9
  %117 = or i32 %105, %116
  %118 = and i32 %80, 63
  %119 = zext nneg i32 %118 to i64
  %120 = getelementptr inbounds nuw [64 x i32], ptr getelementptr inbounds nuw (i8, ptr @des_skb, i64 1024), i64 0, i64 %119
  %121 = load i32, ptr %120, align 4, !tbaa !9
  %122 = lshr i32 %80, 7
  %123 = and i32 %122, 3
  %124 = lshr i32 %80, 8
  %125 = and i32 %124, 60
  %126 = or disjoint i32 %123, %125
  %127 = zext nneg i32 %126 to i64
  %128 = getelementptr inbounds nuw [64 x i32], ptr getelementptr inbounds nuw (i8, ptr @des_skb, i64 1280), i64 0, i64 %127
  %129 = load i32, ptr %128, align 4, !tbaa !9
  %130 = or i32 %129, %121
  %131 = lshr i32 %80, 15
  %132 = and i32 %131, 63
  %133 = zext nneg i32 %132 to i64
  %134 = getelementptr inbounds nuw [64 x i32], ptr getelementptr inbounds nuw (i8, ptr @des_skb, i64 1536), i64 0, i64 %133
  %135 = load i32, ptr %134, align 4, !tbaa !9
  %136 = or i32 %130, %135
  %137 = lshr i32 %80, 21
  %138 = and i32 %137, 15
  %139 = lshr i32 %82, 22
  %140 = and i32 %139, 48
  %141 = or disjoint i32 %138, %140
  %142 = zext nneg i32 %141 to i64
  %143 = getelementptr inbounds nuw [64 x i32], ptr getelementptr inbounds nuw (i8, ptr @des_skb, i64 1792), i64 0, i64 %142
  %144 = load i32, ptr %143, align 4, !tbaa !9
  %145 = or i32 %136, %144
  %146 = shl i32 %145, 16
  %147 = and i32 %117, 65535
  %148 = or disjoint i32 %146, %147
  %149 = tail call i32 @llvm.fshl.i32(i32 %148, i32 %146, i32 2)
  %150 = getelementptr inbounds nuw [16 x [2 x i32]], ptr %1, i64 0, i64 %indvars.iv
  store i32 %149, ptr %150, align 4, !tbaa !9
  %151 = lshr i32 %117, 16
  %152 = and i32 %145, 67043328
  %153 = or disjoint i32 %152, %151
  %154 = tail call i32 @llvm.fshl.i32(i32 %153, i32 %145, i32 6)
  %155 = getelementptr inbounds nuw i8, ptr %150, i64 4
  store i32 %154, ptr %155, align 4, !tbaa !9
  %indvars.iv.next = add nuw nsw i64 %indvars.iv, 1
  %exitcond.not = icmp eq i64 %indvars.iv.next, 16
  br i1 %exitcond.not, label %156, label %74, !llvm.loop !11

156:                                              ; preds = %74
  ret void
}